target datalayout = "e-m:e-p270:32:32-p271:32:32-p272:64:64-i64:64-i128:128-f80:128-n8:16:32:64-S128"
target triple = "x86_64-pc-linux-gnu"

@.str.14 = private unnamed_addr constant [6 x i8] c"color\00", align 1
@.str.15 = private unnamed_addr constant [87 x i8] c"darktable loads %s from\0A<b>%s</b>\0Aor, if this directory does not exist, from\0A<b>%s</b>\00", align 1

; Function Attrs: nounwind uwtable
define ptr @dt_ioppr_get_location_tooltip(ptr noundef %0, ptr noundef %1) #0 {
  %3 = alloca ptr, align 8
  %4 = alloca ptr, align 8
  %5 = alloca [4096 x i8], align 16
  %6 = alloca [4096 x i8], align 16
  %7 = alloca ptr, align 8
  %8 = alloca ptr, align 8
  %9 = alloca ptr, align 8
  store ptr %0, ptr %3, align 8, !tbaa !28
  store ptr %1, ptr %4, align 8, !tbaa !28
  call void @llvm.lifetime.start.p0(i64 4096, ptr %5) #10
  call void @llvm.memset.p0.i64(ptr align 16 %5, i8 0, i64 4096, i1 false)
  call void @llvm.lifetime.start.p0(i64 4096, ptr %6) #10
  call void @llvm.memset.p0.i64(ptr align 16 %6, i8 0, i64 4096, i1 false)
  %10 = getelementptr inbounds [4096 x i8], ptr %5, i64 0, i64 0
  call void @dt_loc_get_datadir(ptr noundef %10, i64 noundef 4096)
  %11 = getelementptr inbounds [4096 x i8], ptr %6, i64 0, i64 0
  call void @dt_loc_get_user_config_dir(ptr noundef %11, i64 noundef 4096)
  call void @llvm.lifetime.start.p0(i64 8, ptr %7) #10
  %12 = getelementptr inbounds [4096 x i8], ptr %5, i64 0, i64 0
  %13 = load ptr, ptr %3, align 8, !tbaa !28
  %14 = call noalias ptr (ptr, ...) @g_build_filename(ptr noundef %12, ptr noundef @.str.14, ptr noundef %13, ptr noundef null)
  store ptr %14, ptr %7, align 8, !tbaa !28
  call void @llvm.lifetime.start.p0(i64 8, ptr %8) #10
  %15 = getelementptr inbounds [4096 x i8], ptr %6, i64 0, i64 0
  %16 = load ptr, ptr %3, align 8, !tbaa !28
  %17 = call noalias ptr (ptr, ...) @g_build_filename(ptr noundef %15, ptr noundef @.str.14, ptr noundef %16, ptr noundef null)
  store ptr %17, ptr %8, align 8, !tbaa !28
  call void @llvm.lifetime.start.p0(i64 8, ptr %9) #10
  %18 = call ptr @dcgettext(ptr noundef null, ptr noundef @.str.15, i32 noundef 5) #10
  %19 = load ptr, ptr %4, align 8, !tbaa !28
  %20 = load ptr, ptr %8, align 8, !tbaa !28
  %21 = load ptr, ptr %7, align 8, !tbaa !28
  %22 = call ptr (ptr, ...) @g_markup_printf_escaped(ptr noundef %18, ptr noundef %19, ptr noundef %20, ptr noundef %21)
  store ptr %22, ptr %9, align 8, !tbaa !28
  %23 = load ptr, ptr %7, align 8, !tbaa !28
  call void @g_free(ptr noundef %23)
  %24 = load ptr, ptr %8, align 8, !tbaa !28
  call void @g_free(ptr noundef %24)
  %25 = load ptr, ptr %9, align 8, !tbaa !28
  call void @llvm.lifetime.end.p0(i64 8, ptr %9) #10
  call void @llvm.lifetime.end.p0(i64 8, ptr %8) #10
  call void @llvm.lifetime.end.p0(i64 8, ptr %7) #10
  call void @llvm.lifetime.end.p0(i64 4096, ptr %6) #10
  call void @llvm.lifetime.end.p0(i64 4096, ptr %5) #10
  ret ptr %25
}