; Function Attrs: nounwind uwtable
define ptr @dt_ioppr_get_location_tooltip(ptr noundef %0, ptr noundef %1) local_unnamed_addr #0 {
  %3 = alloca [4096 x i8], align 16
  %4 = alloca [4096 x i8], align 16
  call void @llvm.lifetime.start.p0(i64 4096, ptr nonnull %3) #17
  call void @llvm.memset.p0.i64(ptr noundef nonnull align 16 dereferenceable(4096) %3, i8 0, i64 4096, i1 false)
  call void @llvm.lifetime.start.p0(i64 4096, ptr nonnull %4) #17
  call void @llvm.memset.p0.i64(ptr noundef nonnull align 16 dereferenceable(4096) %4, i8 0, i64 4096, i1 false)
  call void @dt_loc_get_datadir(ptr noundef nonnull %3, i64 noundef 4096) #17
  call void @dt_loc_get_user_config_dir(ptr noundef nonnull %4, i64 noundef 4096) #17
  %5 = call noalias ptr (ptr, ...) @g_build_filename(ptr noundef nonnull %3, ptr noundef nonnull @.str.14, ptr noundef %0, ptr noundef null) #17
  %6 = call noalias ptr (ptr, ...) @g_build_filename(ptr noundef nonnull %4, ptr noundef nonnull @.str.14, ptr noundef %0, ptr noundef null) #17
  %7 = call ptr @dcgettext(ptr noundef null, ptr noundef nonnull @.str.15, i32 noundef 5) #17
  %8 = call ptr (ptr, ...) @g_markup_printf_escaped(ptr noundef %7, ptr noundef %1, ptr noundef %6, ptr noundef %5) #17
  call void @g_free(ptr noundef %5) #17
  call void @g_free(ptr noundef %6) #17
  call void @llvm.lifetime.end.p0(i64 4096, ptr nonnull %4) #17
  call void @llvm.lifetime.end.p0(i64 4096, ptr nonnull %3) #17
  ret ptr %8
}